; Function Attrs: nounwind uwtable
define noundef ptr @H5LTyy_create_buffer(ptr noundef %0, i32 noundef %1) local_unnamed_addr #0 {
  %3 = tail call noalias noundef dereferenceable_or_null(64) ptr @malloc(i64 noundef 64) #24
  %.not = icmp eq ptr %3, null
  br i1 %.not, label %4, label %5

4:                                                ; preds = %2
  tail call fastcc void @yy_fatal_error(ptr noundef nonnull @.str.1) #25
  unreachable

5:                                                ; preds = %2
  %6 = getelementptr inbounds i8, ptr %3, i64 24
  store i32 %1, ptr %6, align 8
  %7 = add nsw i32 %1, 2
  %8 = sext i32 %7 to i64
  %9 = tail call noalias noundef ptr @malloc(i64 noundef %8) #24
  %10 = getelementptr inbounds i8, ptr %3, i64 8
  store ptr %9, ptr %10, align 8
  %.not9 = icmp eq ptr %9, null
  br i1 %.not9, label %11, label %12

11:                                               ; preds = %5
  tail call fastcc void @yy_fatal_error(ptr noundef nonnull @.str.1) #25
  unreachable

12:                                               ; preds = %5
  %13 = getelementptr inbounds i8, ptr %3, i64 32
  store i32 1, ptr %13, align 8
  tail call fastcc void @H5LTyy_init_buffer(ptr noundef nonnull %3, ptr noundef %0)
  ret ptr %3
}